(dp0
Vneighbors
p1
I1043
sVcolleges
p2
I766
sVhttps://en.wikipedia.org/wiki/United_States_Secretary_of_the_Army
p3
I1128
sVdoctor
p4
I736
sVdiplomacy
p5
I367
sVrt @senategop
p6
I1161
sVrt @emilyslist
p7
I446
sVhats
p8
I893
sVlack
p9
I1046
sVhttps://en.wikipedia.org/wiki/Consumer_Financial_Protection_Bureau
p10
I305
sVresults
p11
I236
sV@deptvetaffairs
p12
I1047
sVtax loophole
p13
I1195
sVdeadline
p14
I448
sVwelfare
p15
I153
sVhttps://en.wikipedia.org/wiki/Drug_Enforcement_Administration
p16
I678
sVchildren
p17
I767
sV@amyklobuchar
p18
I588
sVhttps://en.wikipedia.org/wiki/Tammy_Baldwin
p19
I1214
sVvotes
p20
I306
sVhttps://en.wikipedia.org/wiki/Arkansas
p21
I154
sVelectricity
p22
I0
sVsexual assault
p23
I1
sVtweet
p24
I895
sVshow
p25
I721
sVopportunities
p26
I1049
sVhttps://en.wikipedia.org/wiki/Idaho
p27
I370
sVsmallbusinesses
p28
I2
sVlist
p29
I1053
sVcharge
p30
I969
sVprotections
p31
I597
sV#goptaxscam
p32
I155
sVdressing
p33
I156
sVpay
p34
I780
sVhttps://en.wikipedia.org/wiki/Mark_Esper
p35
I970
sVhttps://en.wikipedia.org/wiki/Ronald_Reagan
p36
I207
sVveterans
p37
I83
sVresources
p38
I237
sVdivision
p39
I371
sVconfirmation
p40
I1130
sVpaychecks
p41
I84
sVrisk
p42
I896
sV#goptaxplan
p43
I522
sVrise
p44
I897
sVgoal
p45
I1063
sVhttps://en.wikipedia.org/wiki/Venezuela
p46
I368
sVhttps://en.wikipedia.org/wiki/Debbie_Stabenow
p47
I1103
sVwishes
p48
I1131
sVworst
p49
I1051
sVsurprise
p50
I620
sVhttps://en.wikipedia.org/wiki/Semper_fidelis
p51
I867
sVdifference
p52
I768
sVtuition waivers
p53
I1132
sV@hhsgov
p54
I898
sVhttps://en.wikipedia.org/wiki/United_States_Marine_Corps
p55
I1174
sVgradstudenttax https://t.co/n4n616ergv
p56
I3
sVsen.
p57
I238
sVtax cuts
p58
I495
sV#taxreformbill
p59
I4
sV@emcollective
p60
I972
sVskills
p61
I599
sVpositions
p62
I523
sVarray
p63
I997
sVrights
p64
I609
sV@uscbo
p65
I308
sVtax loopholes
p66
I239
sVleader
p67
I1203
sV@michiganstateu
p68
I157
sVwait lists
p69
I373
sVhttps://en.wikipedia.org/wiki/Mitch_McConnell
p70
I309
sVrt @realdonaldtrump
p71
I602
sVteam
p72
I85
sV@senbennetco
p73
I240
sVbusinesses
p74
I802
sVhttps://en.wikipedia.org/wiki/Patient_Protection_and_Affordable_Care_Act
p75
I449
sV@lcvoters
p76
I507
sVcnndebatenight #goptaxbill
p77
I525
sVtax cuts &amp
p78
I450
sVsenior citizens
p79
I374
sVrt @dbrandewie
p80
I86
sV@frcdc
p81
I241
sVhttps://en.wikipedia.org/wiki/Queen_Rania_of_Jordan
p82
I1021
sVleaders
p83
I899
sVfindings
p84
I87
sV&gt
p85
I159
sVmi
p86
I906
sVtaxdebate https://t.co/woyr2i6ypj
p87
I680
sVabubaker
p88
I451
sVeconomies
p89
I649
sV@sendavidperdue
p90
I160
sVcost
p91
I375
sVvideo
p92
I242
sVhttps://en.wikipedia.org/wiki/United_States_Congress_Joint_Economic_Committee
p93
I734
sVpass
p94
I161
sVhttps://en.wikipedia.org/wiki/Sheldon_Whitehouse
p95
I88
sVhttps://en.wikipedia.org/wiki/Donald_Trump
p96
I89
sVn
p97
I946
sVinvestment
p98
I162
sVhttps://en.wikipedia.org/wiki/New_Jersey
p99
I6
sVthe latest tax cut lie
p100
I253
sVbusiness
p101
I437
sVhttps://en.wikipedia.org/wiki/Native_Americans_in_the_United_States
p102
I7
sVrt @pattymurray
p103
I603
sVhate
p104
I894
sVassistance
p105
I377
sVliberty
p106
I901
sVuniform
p107
I378
sVaccess
p108
I198
sVhealth
p109
I1070
sVissues
p110
I1129
sVcapital
p111
I1134
sV@marshallu
p112
I527
sVhttps://en.wikipedia.org/wiki/Tax_reform
p113
I1135
sVstaff
p114
I858
sV#childtaxcredit
p115
I584
sV@potus
p116
I975
sVdeportation
p117
I722
sVhttps://en.wikipedia.org/wiki/Arizona
p118
I454
sVhttps://en.wikipedia.org/wiki/Alex_Azar
p119
I243
sVhttps://en.wikipedia.org/wiki/Pennsylvania
p120
I868
sV@gophelp
p121
I976
sVinterns
p122
I644
sVcollege students
p123
I163
sVtax code
p124
I379
sVmen
p125
I49
sV@nnedv
p126
I164
sVanswers
p127
I455
sVhundreds
p128
I902
sVwater
p129
I977
sVmiddl
p130
I369
sVgroups
p131
I978
sVrt @uscapitoltree
p132
I496
sVconsideration
p133
I244
sVfarm bill listening tour
p134
I165
sVhalf
p135
I1196
sVchange
p136
I380
sVkids
p137
I8
sVdaughter
p138
I310
sVhttps://en.wikipedia.org/wiki/Kaktovik,_Alaska
p139
I529
sV@aarp
p140
I166
sVtroops
p141
I682
sVhttps://en.wikipedia.org/wiki/Wisconsin
p142
I456
sVexperience
p143
I167
sVexample
p144
I16
sVimplementation
p145
I331
sVpoli
p146
I1014
sVinvestment &amp
p147
I604
sVpick
p148
I168
sVhttps://en.wikipedia.org/wiki/Mick_Mulvaney
p149
I830
sVmilitary
p150
I10
sV#taxrelief bill
p151
I1137
sVchanges
p152
I903
sVhonor
p153
I831
sVtax proposal
p154
I90
sVlove
p155
I91
sV@senatorhassan
p156
I994
sVfamily
p157
I458
sV@mikecrapo
p158
I683
sVwin
p159
I533
sVhttps://en.wikipedia.org/wiki/United_States_Capitol
p160
I891
sV@nytimes
p161
I351
sV#taxcutsandjobsact
p162
I1177
sVsmallbizsaturday
p163
I534
sV@sencapito
p164
I11
sVhttps://en.wikipedia.org/wiki/United_States_Senate_Committee_on_Environment_and_Public_Works
p165
I170
sVhttps://en.wikipedia.org/wiki/Leandra_English
p166
I1059
sVconflicts
p167
I1164
sVhttps://en.wikipedia.org/wiki/President_of_the_United_States
p168
I979
sVturkey
p169
I1015
sVpassage
p170
I968
sVtools
p171
I245
sVcrisis
p172
I980
sVcloud
p173
I535
sVhttps://en.wikipedia.org/wiki/Syria
p174
I770
sV#taxreform
p175
I536
sV@randpaul
p176
I727
sVvoices
p177
I716
sV@senmarkey @senbennetco @martinheinrich @lcvoters
p178
I12
sVhttps://en.wikipedia.org/wiki/Wyoming
p179
I920
sVrepublican
p180
I1158
sVrt @senatemajldr
p181
I382
sV#taxrelief
p182
I836
sVvisit
p183
I686
sVhttps://en.wikipedia.org/wiki/United_States_Senate_Select_Committee_on_Ethics
p184
I1168
sVhttps://en.wikipedia.org/wiki/Fargo,_North_Dakota
p185
I942
sVlobbying
p186
I689
sVdoubt
p187
I900
sVhttps://en.wikipedia.org/wiki/Indiana
p188
I383
sVhttps
p189
I384
sV#sfrc
p190
I904
sVsafe room
p191
I825
sVhttps://en.wikipedia.org/wiki/Small_business
p192
I459
sV@marthamaccallum
p193
I13
sVtax hikes
p194
I126
sV@sentoddyoung
p195
I171
sVmore
p196
I172
sVpolitics
p197
I1037
sV&amp
p198
I965
sVpeopl
p199
I92
sVtax rates
p200
I833
sV@senjohnkennedy
p201
I981
sVhttps://en.wikipedia.org/wiki/Montana
p202
I982
sVmissile
p203
I537
sVdowntown
p204
I687
sVdealings
p205
I247
sVeverywhere
p206
I93
sVhttps://en.wikipedia.org/wiki/Medicaid
p207
I1144
sVbenefits
p208
I789
sVhole
p209
I14
sVeffort
p210
I688
sVpotential
p211
I719
sVinsights
p212
I984
sVtown
p213
I773
sVorganizations
p214
I385
sVhttps://en.wikipedia.org/wiki/Russia
p215
I607
sVroom
p216
I608
sVsanctions
p217
I538
sVhttps://en.wikipedia.org/wiki/Meghan_McCain
p218
I248
sVscience
p219
I173
sV@usairforce
p220
I174
sVwork
p221
I311
sVhttps://en.wikipedia.org/wiki/IHS_Markit
p222
I15
sVduty
p223
I1012
sVsmallbiz
p224
I681
sVawareness
p225
I723
sVtransparency
p226
I312
sVfreedom
p227
I1146
sVindustry
p228
I138
sV@renoairport
p229
I1107
sVhistory
p230
I462
sVheart
p231
I386
sVviolence
p232
I752
sVprogram
p233
I1050
sVtrump
p234
I986
sVproviders
p235
I539
sVprocess
p236
I249
sVchip
p237
I387
sVtax
p238
I1147
sVlaw enforcement
p239
I17
sVstates
p240
I175
sVhttps://en.wikipedia.org/wiki/Gregory_G._Katsas
p241
I463
sVsomething
p242
I1148
sVbackground checks
p243
I974
sVsense
p244
I176
sVtimes
p245
I908
sVhttps://en.wikipedia.org/wiki/Kathleen_Hartnett_White
p246
I880
sVaction
p247
I949
sVweed whacker
p248
I1062
sVnative
p249
I838
sVinformation
p250
I177
sVanswer
p251
I610
sVnebraskans
p252
I774
sVrecovery
p253
I313
sVconversation
p254
I1166
sVhttps://en.wikipedia.org/wiki/Dodd%E2%80%93Frank_Wall_Street_Reform_and_Consumer_Protection_Act
p255
I250
sVdiscussion
p256
I1154
sVgiveaways
p257
I389
sV@redcross
p258
I769
sVdad
p259
I845
sVdelay
p260
I251
sVacti
p261
I775
sVblessings
p262
I884
sVhttps://en.wikipedia.org/wiki/Oklahoma
p263
I627
sVhttps://en.wikipedia.org/wiki/Chris_Wallace
p264
I18
sVinterview
p265
I314
sVhttps://en.wikipedia.org/wiki/United_Nations
p266
I19
sVfam
p267
I1052
sVhttps://en.wikipedia.org/wiki/World_War_II
p268
I1056
sV@sbalinda mcmahon
p269
I540
sVhttps://t.co/kediky7bge
p270
I464
sVeconomy
p271
I390
sVshar
p272
I498
sV@chrismurphyct
p273
I692
sV@senatedems @senschumer @senatorcantwell
p274
I94
sVplans
p275
I178
sVhttps://en.wikipedia.org/wiki/Ron_Wyden
p276
I388
sVreps
p277
I724
sVhttps://en.wikipedia.org/wiki/Wolf_Blitzer
p278
I252
sVhttps://en.wikipedia.org/wiki/Islamophobia
p279
I541
sVtool
p280
I799
sVlump
p281
I911
sVhttps://en.wikipedia.org/wiki/United_States_Department_of_Agriculture
p282
I563
sVapplications
p283
I95
sVlot
p284
I912
sVhttps://en.wikipedia.org/wiki/Internal_Revenue_Service
p285
I611
sVislands
p286
I667
sVhttps://en.wikipedia.org/wiki/United_States_House_Committee_on_the_Budget
p287
I554
sVrt @cnn
p288
I20
sVlaw
p289
I315
sVnomination
p290
I392
sVproduction #agriculture
p291
I169
sVman
p292
I694
sV@gopsenfinance
p293
I466
sVreadiness
p294
I1151
sVattempt
p295
I614
sVhttps://en.wikipedia.org/wiki/Tim_Scott
p296
I777
sVtax break
p297
I1152
sVtax plan
p298
I778
sV@chrisvanhollen
p299
I695
sV@senblumenthal
p300
I913
sVhomeowners
p301
I316
sVlines
p302
I840
sV@senatorlankford
p303
I708
sVhttps://en.wikipedia.org/wiki/Dwight_D._Eisenhower_Memorial
p304
I1055
sVcomplexity
p305
I914
sVrt @sentedcruz
p306
I467
sVresponsibility
p307
I779
sV@jctgov
p308
I754
sVlifetime &amp
p309
I543
sVhealthcare
p310
I544
sVbanks
p311
I468
sVwillie mcshan
p312
I589
sVhttps://en.wikipedia.org/wiki/Korean_War
p313
I1065
sVdemocratic
p314
I109
sVdream
p315
I469
sVorder
p316
I317
sVanyone
p317
I712
sVsenators
p318
I21
sVhelp
p319
I470
sVoffice
p320
I318
sVhttps://en.wikipedia.org/wiki/South_Dakota
p321
I22
sVtaxrelief
p322
I531
sVincome group
p323
I471
sVtax reform
p324
I404
sVadoption
p325
I1102
sV@dhsgov
p326
I472
sVrt @washingtonpost
p327
I842
sVcommittee
p328
I473
sVcuts
p329
I696
sVhttps://en.wikipedia.org/wiki/AARP
p330
I832
sVwind power
p331
I795
sVworship
p332
I989
sVsome
p333
I671
sVle
p334
I843
sVgroup
p335
I697
sVcosponsor
p336
I393
sVhttps://en.wikipedia.org/wiki/Israel
p337
I500
sV@wsj
p338
I844
sVhttps://en.wikipedia.org/wiki/Florida
p339
I23
sVhealth care repeal bill
p340
I545
sVimp
p341
I916
sVoffic
p342
I319
sVtax relief
p343
I320
sVcommunity health centers
p344
I24
sVtax reform proposal
p345
I1205
sVtweets
p346
I574
sVhttps://en.wikipedia.org/wiki/Michael_Dourson
p347
I917
sVchurning
p348
I1074
sVally
p349
I179
sVchild tax credit
p350
I254
sV@senmikelee
p351
I96
sV@jobhonor
p352
I255
sVsomeone
p353
I1022
sVreturn
p354
I424
sVhttps://en.wikipedia.org/wiki/Ampere
p355
I1067
sVviews
p356
I698
sVmoms
p357
I990
sVwashington
p358
I1020
sVtax provisions
p359
I547
sVnation
p360
I97
sVnevadans
p361
I256
sVlunch
p362
I579
sVcruise missile
p363
I321
sVhttps://en.wikipedia.org/wiki/Missouri
p364
I322
sVeffects
p365
I25
sVicymi
p366
I180
sVwealthy
p367
I395
sVschools
p368
I26
sVhttps://en.wikipedia.org/wiki/Robert_Mugabe
p369
I991
sVhearing
p370
I922
sVprovision
p371
I396
sVgrowt
p372
I653
sV@secshulkin
p373
I397
sVrt @senbooker
p374
I1002
sVcertainty
p375
I883
sVhttps://en.wikipedia.org/wiki/Los_Angeles
p376
I257
sV@usdard
p377
I1060
sV#netneutrality
p378
I919
sVinjuries
p379
I820
sVconflict
p380
I617
sV@vikings
p381
I564
sV#trumptaxscam
p382
I700
sVhttps://en.wikipedia.org/wiki/Connecticut
p383
I398
sVside
p384
I618
sVrt @littlelobbyists
p385
I847
sV@cnn
p386
I619
sVseniors
p387
I548
sV#veteransday2017
p388
I1032
sVharm
p389
I783
sVeveryone
p390
I1034
sVgroundbreaking
p391
I950
sVhealth care premiums
p392
I258
sVhttps://en.wikipedia.org/wiki/Joseph_Crowley
p393
I323
sVseries
p394
I27
sVenergy
p395
I785
sVhttps://en.wikipedia.org/wiki/Janet_Yellen
p396
I630
sVidea
p397
I786
sVabuse
p398
I1150
sVhttps://en.wikipedia.org/wiki/Puerto_Rico
p399
I372
sVchallenges
p400
I399
sVsociety
p401
I259
sVhttps://en.wikipedia.org/wiki/Bill_Cassidy
p402
I948
sVhttps://en.wikipedia.org/wiki/North_Dakota
p403
I1211
sVhttps://en.wikipedia.org/wiki/Rhode_Island
p404
I28
sV@sencortezmasto
p405
I918
sV@senjohnmccain
p406
I181
sVbalance
p407
I650
sVevent
p408
I474
sVtax increase
p409
I1003
sVrt
p410
I29
sVhttps://en.wikipedia.org/wiki/United_States_Secretary_of_Health_and_Human_Services
p411
I937
sVhttps://en.wikipedia.org/wiki/Senate
p412
I550
sVfunding
p413
I1039
sVhearings
p414
I1169
sVspace
p415
I400
sVrep
p416
I848
sVhatred
p417
I693
sVtax cut bill
p418
I1133
sVresearch
p419
I182
sVincrease
p420
I401
sVcompanies
p421
I600
sVhttps://en.wikipedia.org/wiki/National_Defense_Authorization_Act
p422
I839
sVinvestigation
p423
I99
sVsafety
p424
I475
sVinternet
p425
I100
sVterm
p426
I992
sVhttps://en.wikipedia.org/wiki/Uncle_Sam
p427
I402
sVbills
p428
I1160
sVmillions
p429
I998
sVrt @stevedaines
p430
I324
sVsacrifice
p431
I391
sVhttps://en.wikipedia.org/wiki/Rand_Paul
p432
I101
sVepidemic
p433
I943
sVhttps://en.wikipedia.org/wiki/Ted_Cruz
p434
I993
sV@senatorcollins
p435
I183
sVhttps://en.wikipedia.org/wiki/National_Rifle_Association
p436
I871
sV#arcticrefuge
p437
I1071
sVcoloradans
p438
I849
sV@repspeier
p439
I746
sVcaregivers
p440
I551
sV@realdonaldtrump
p441
I704
sV#icymi
p442
I524
sVreason
p443
I476
sVvets
p444
I325
sVgiveaway
p445
I787
sVmembers
p446
I788
sVdems
p447
I576
sV@epwgop
p448
I184
sVcare
p449
I403
sVaisle
p450
I622
sVowners
p451
I186
sVmilitary members
p452
I623
sVthread
p453
I1072
sVhttps://en.wikipedia.org/wiki/Council_on_Environmental_Quality
p454
I326
sVconcerns
p455
I854
sVhttps://en.wikipedia.org/wiki/Utah
p456
I1208
sVflorida
p457
I907
sVpriorities
p458
I921
sVrt @senatedems
p459
I705
sVmotion
p460
I995
sVthing
p461
I706
sVamerican
p462
I477
sVbirthday
p463
I988
sVplace
p464
I996
sVgenerations
p465
I1179
sVw
p466
I1064
sVshopsmall
p467
I187
sVtax deduction
p468
I642
sVsupport
p469
I76
sVhttps://en.wikipedia.org/wiki/Zimbabwe
p470
I822
sVhttps://en.wikipedia.org/wiki/New_York_City
p471
I102
sVameric
p472
I1153
sVg
p473
I1165
sVeconomists
p474
I624
sVhttps://en.wikipedia.org/wiki/North_Korea
p475
I625
sVquestion
p476
I1123
sVjobs act
p477
I648
sVnumber
p478
I188
sVhost grassroots leaders
p479
I709
sVone
p480
I103
sVhook
p481
I626
sVhttps://en.wikipedia.org/wiki/Kim_Jong-un
p482
I260
sV@salvationarmyus
p483
I824
sVamericans
p484
I710
sVpresident
p485
I612
sVvote
p486
I104
sVcorporations
p487
I711
sVmessage
p488
I405
sVaccountability
p489
I513
sVquality
p490
I552
sVconcert
p491
I416
sVhouseholds
p492
I406
sVstory
p493
I1075
sVservice
p494
I30
sVefforts
p495
I959
sV@sentoomey
p496
I31
sVtop
p497
I923
sVhttps://en.wikipedia.org/wiki/Child_tax_credit
p498
I999
sVhttps://en.wikipedia.org/wiki/Lindsey_Graham
p499
I1000
sVsystem
p500
I261
sVhttps://en.wikipedia.org/wiki/Museum_of_the_Bible
p501
I613
sVhttps://en.wikipedia.org/wiki/United_States_Senate_Committee_on_Finance
p502
I105
sVattack
p503
I553
sValexander-murray
p504
I106
sVcompromise
p505
I792
sVthoughts
p506
I655
sVdecorations
p507
I262
sVhttps://en.wikipedia.org/wiki/California
p508
I327
sV@genopp
p509
I1167
sVtog
p510
I924
sVfriend
p511
I407
sVreminder
p512
I1024
sVinterests
p513
I263
sVmurder
p514
I925
sVrt @mccaskilloffice
p515
I713
sVhttps://en.wikipedia.org/wiki/Washington_(state)
p516
I32
sVseason
p517
I38
sVr&amp
p518
I598
sVnobody
p519
I850
sVhttps://en.wikipedia.org/wiki/Property_tax
p520
I628
sVhttps://en.wikipedia.org/wiki/Detroit
p521
I927
sVappreciation
p522
I189
sVpart
p523
I793
sV#taxreform bill
p524
I264
sVhttps://en.wikipedia.org/wiki/Tyndall_Air_Force_Base
p525
I851
sVhttps://en.wikipedia.org/wiki/China
p526
I107
sVgrace
p527
I190
sVproducers
p528
I1025
sVcolleagues
p529
I265
sVb
p530
I794
sV@sbalinda
p531
I1122
sVcondolences
p532
I191
sV@usmc
p533
I973
sVtree
p534
I34
sVrate
p535
I1054
sVsmall business owners
p536
I1001
sVnations
p537
I35
sVproject
p538
I36
sV@senatorburr
p539
I478
sVpatients
p540
I1171
sVfuture
p541
I108
sVhttps://en.wikipedia.org/wiki/DREAM_Act
p542
I376
sVhttps://en.wikipedia.org/wiki/Wilbur_Ross
p543
I590
sVhttps://en.wikipedia.org/wiki/Martin_Heinrich
p544
I1078
sVweapon
p545
I873
sVpayroll taxes
p546
I806
sVtune in
p547
I1079
sVbridge
p548
I928
sVuniforms
p549
I1080
sVhttps://en.wikipedia.org/wiki/Egypt
p550
I715
sVinvestors
p551
I53
sVjoe
p552
I1188
sVmatthew rexford
p553
I1190
sVmind
p554
I631
sVfew
p555
I1142
sVhttps://en.wikipedia.org/wiki/Iran
p556
I632
sV@natlblueribbon
p557
I717
sVtax scam
p558
I555
sVhttps://en.wikipedia.org/wiki/Marco_Rubio
p559
I852
sVrt @sbgc2c
p560
I37
sVbreakfast
p561
I410
sVhttps://en.wikipedia.org/wiki/Bible
p562
I526
sVloved ones
p563
I718
sVstrength
p564
I328
sV@usda
p565
I204
sVhoosiers
p566
I411
sVrt @lmthomadpt
p567
I740
sVpa
p568
I1101
sVveteran
p569
I412
sVagency
p570
I1172
sVhttps://en.wikipedia.org/wiki/Abdullah_II_of_Jordan
p571
I479
sVretweet
p572
I807
sVmajority
p573
I797
sVadvocates
p574
I542
sVchairman
p575
I1081
sVhttps://en.wikipedia.org/wiki/James_Mattis
p576
I929
sV@libreinitiative
p577
I798
sVhttps://en.wikipedia.org/wiki/Ryan_Crocker
p578
I480
sVmany
p579
I735
sV#northdakota
p580
I714
sVhttps://en.wikipedia.org/wiki/Indian_country
p581
I634
sV@senaterpc
p582
I720
sVall
p583
I1044
sVtax event
p584
I530
sVdignity
p585
I664
sVgoptaxplan
p586
I930
sVlet's go
p587
I1045
sVhttps://en.wikipedia.org/wiki/Tax
p588
I1082
sVprice
p589
I413
sVmost
p590
I800
sVexperiences
p591
I481
sVplan
p592
I193
sVletter
p593
I39
sVpleasure
p594
I781
sVrollout
p595
I267
sVamendment process
p596
I482
sVrt @foxbusiness
p597
I194
sVclass
p598
I1173
sVhttps://en.wikipedia.org/wiki/Wall_Street
p599
I268
sV@chucktodd
p600
I329
sV@sen_joemanchin
p601
I856
sVconsumers
p602
I452
sVloopholes
p603
I483
sVpress conference
p604
I755
sVhttps://en.wikipedia.org/wiki/Veterans_Day
p605
I841
sValarm
p606
I635
sVrt @senatortomudall
p607
I414
sVthanksgiving
p608
I269
sV@dhsoig
p609
I658
sVhttps://en.wikipedia.org/wiki/West_Virginia
p610
I110
sVtaxreform
p611
I440
sVwomen
p612
I1145
sVhttps://en.wikipedia.org/wiki/Equifax
p613
I636
sVlatest
p614
I875
sVmillionaires
p615
I987
sVfact
p616
I270
sVlaws
p617
I111
sVhttps://en.wikipedia.org/wiki/MS-13
p618
I857
sVtrumptax
p619
I271
sVtax reform package
p620
I559
sV@freedompartners
p621
I961
sVhttps://en.wikipedia.org/wiki/Net_neutrality
p622
I196
sVhttps://en.wikipedia.org/wiki/Maryland
p623
I939
sVwatch
p624
I934
sVfa
p625
I465
sV@senatorheitkamp
p626
I932
sVwell-being
p627
I560
sVdemocrats
p628
I1175
sVheadlines
p629
I803
sVhttps://en.wikipedia.org/wiki/United_States_Department_of_State
p630
I1182
sVdebate
p631
I1176
sV@senthomtillis
p632
I460
sVground
p633
I415
sVimpact
p634
I197
sVwitnesses
p635
I453
sVjudges
p636
I637
sVregulations
p637
I521
sVheadline
p638
I40
sVwinner
p639
I561
sVstate
p640
I567
sVpenalty
p641
I1085
sVfreedoms
p642
I1141
sVhttps://en.wikipedia.org/wiki/Deferred_Action_for_Childhood_Arrivals
p643
I835
sVdreamers
p644
I562
sVrich
p645
I246
sVmoney
p646
I744
sVfolks
p647
I638
sVthousands
p648
I985
sVhttps://en.wikipedia.org/wiki/Children%27s_Health_Insurance_Program
p649
I971
sVhope
p650
I272
sV#goptaxbill
p651
I113
sV@senator
p652
I1183
sV#federalfumbles
p653
I1143
sV@senatorcantwell
p654
I915
sVstop
p655
I639
sVcongratulations
p656
I77
sVtrees
p657
I485
sVcoast
p658
I640
sVpocket
p659
I41
sVnominees
p660
I277
sVcourage
p661
I804
sVnominee
p662
I796
sVreport
p663
I935
sVhttps://en.wikipedia.org/wiki/John_Cornyn
p664
I726
sVhttps://en.wikipedia.org/wiki/Cedar_Rapids,_Iowa
p665
I273
sV@senategop
p666
I199
sV@johncornyn
p667
I699
sVhealth care legislation
p668
I42
sVthe #goptaxplan
p669
I1086
sVtaxes
p670
I274
sVpublic
p671
I936
sVhttps://en.wikipedia.org/wiki/Afghanistan
p672
I275
sV@sendeanheller
p673
I33
sVrt @cnnsitroom
p674
I486
sVcre
p675
I200
sVhttps://en.wikipedia.org/wiki/Illinois
p676
I805
sV@senmarkey
p677
I1005
sVtax bill
p678
I707
sVsecretary
p679
I332
sVhealth care deal
p680
I938
sVzachary
p681
I1077
sVqtr
p682
I276
sVdisaster
p683
I43
sVprayers
p684
I565
sVhttps://en.wikipedia.org/wiki/Dana_Perino
p685
I266
sVshareholders
p686
I771
sVhttps://en.wikipedia.org/wiki/Hurricane_Irma
p687
I862
sVopening statement
p688
I201
sVsex
p689
I202
sVculture
p690
I487
sVposition
p691
I874
sVofficials
p692
I566
sVresult
p693
I44
sVhappythanksgiving
p694
I643
sVhttps://en.wikipedia.org/wiki/University_of_Delaware
p695
I114
sVnews
p696
I941
sVfossil fuels
p697
I333
sVyes
p698
I660
sVbest
p699
I45
sV@publicknowledge
p700
I1090
sV#taxbill
p701
I46
sVmatter
p702
I629
sVlots
p703
I47
sV@clairecmc @amyklobuchar
p704
I1008
sVhttps://en.wikipedia.org/wiki/North_Carolina
p705
I417
sVrepresentatives
p706
I115
sVkind
p707
I1076
sVhttps://en.wikipedia.org/wiki/Mississippi
p708
I488
sVweapons
p709
I1009
sVazar
p710
I645
sVhttps://en.wikipedia.org/wiki/Sergeant
p711
I203
sVscore
p712
I48
sVhttps://en.wikipedia.org/wiki/Michigan
p713
I116
sVuse
p714
I1140
sVjoy
p715
I1184
sV@senatedems
p716
I334
sVprogress
p717
I861
sVpennsylvanians
p718
I808
sVhttps://en.wikipedia.org/wiki/Martha_MacCallum
p719
I335
sVcorruption
p720
I1088
sVcampaign
p721
I605
sVjobs
p722
I117
sVannouncement
p723
I1028
sVimportance
p724
I568
sVhttps://en.wikipedia.org/wiki/Medicare_(United_States)
p725
I863
sV#seniors
p726
I569
sVattention
p727
I1089
sVfocus
p728
I967
sVagencies
p729
I1185
sVseque
p730
I278
sV@collegetrack
p731
I528
sVrt @nytimes
p732
I1010
sVretirement
p733
I503
sVnet neutrality
p734
I1057
sVgobble
p735
I408
sVdedication
p736
I940
sVdoggie hamlet
p737
I50
sVdebt
p738
I51
sVholiday cards
p739
I570
sVproblem
p740
I571
sVhttps://en.wikipedia.org/wiki/Chuck_Grassley
p741
I279
sVpharma
p742
I615
sVfoes
p743
I336
sVcos
p744
I337
sV@senatorwicker
p745
I419
sVdefense
p746
I1087
sVappropriations
p747
I809
sVcountry
p748
I52
sVuncertainty
p749
I646
sVjob
p750
I1187
sVpropaganda
p751
I674
sVdeduction
p752
I119
sVrt @energygop
p753
I338
sVs
p754
I120
sVhttps://en.wikipedia.org/wiki/Federal_Reserve_System
p755
I1180
sVhttps://en.wikipedia.org/wiki/Texas
p756
I490
sVsenator
p757
I1011
sVpassing
p758
I864
sVrt @sentoomey
p759
I1189
sV@foxbusiness
p760
I580
sVcon
p761
I339
sVhandouts
p762
I121
sVwhite house
p763
I758
sVwords
p764
I1178
sV@senatortimscott
p765
I1093
sV#jobs
p766
I420
sVpoint
p767
I810
sVreasons
p768
I1095
sVmandate
p769
I846
sVothers
p770
I829
sVhttps://en.wikipedia.org/wiki/Pharmaceutical_industry
p771
I887
sVcommunity
p772
I205
sVhttps://en.wikipedia.org/wiki/North_American_Free_Trade_Agreement
p773
I573
sVarticle
p774
I418
sVtax cut
p775
I340
sVperpetrators
p776
I421
sVendeavor
p777
I1013
sVbench
p778
I876
sVmission
p779
I1066
sVpanel
p780
I881
sVct
p781
I280
sVgratitude
p782
I341
sVpeople.
p783
I1109
sVhttps://en.wikipedia.org/wiki/Islamic_State_of_Iraq_and_the_Levant
p784
I409
sVmissile launch
p785
I1149
sVincomes
p786
I1097
sVhttps://en.wikipedia.org/wiki/Maine
p787
I54
sVrt @jecdems
p788
I281
sVinnovation
p789
I1116
sVfederal fumbles
p790
I728
sVmark
p791
I729
sVnotinvisible
p792
I865
sVreduction
p793
I1100
sVtax breaks
p794
I295
sV@marcorubio
p795
I489
sVhttps://en.wikipedia.org/wiki/Virginia
p796
I422
sVprivilege
p797
I56
sVhttps://en.wikipedia.org/wiki/Americas
p798
I546
sVproposal
p799
I866
sVdozens
p800
I342
sVmeeting
p801
I811
sVsamantha mack
p802
I1212
sVrt @gophelp
p803
I730
sVtreatment
p804
I429
sVlife
p805
I57
sVvalor act
p806
I123
sVfamilies
p807
I343
sVf
p808
I834
sVdrugs
p809
I944
sVrepublicans
p810
I945
sVgas
p811
I812
sVc
p812
I1091
sV@sendonnelly
p813
I423
sVhttps://en.wikipedia.org/wiki/United_States_Air_Force
p814
I1042
sVhttps://en.wikipedia.org/wiki/Alabama
p815
I731
sVlives
p816
I492
sVholiday season
p817
I732
sVchild
p818
I58
sV@sengillibrand
p819
I1092
sVevidence
p820
I363
sVspin
p821
I59
sVrt @senatordurbin
p822
I493
sVhealth insurance
p823
I675
sVrt @vachair
p824
I282
sVcase
p825
I1018
sVhealth care coverage
p826
I1019
sVtennesseans
p827
I283
sVlook
p828
I494
sVhttps://en.wikipedia.org/wiki/Congressional_Budget_Office
p829
I307
sVtax reform bill
p830
I910
sVhttps://en.wikipedia.org/wiki/Amplifier
p831
I158
sVenrollment
p832
I208
sVbill
p833
I813
sVbudget
p834
I5
sVrt @sbalinda
p835
I60
sV@cnbc https://t.co/ftqypb2vsk
p836
I284
sVbusiness leaders
p837
I344
sVteachers
p838
I947
sVbehavior
p839
I1104
sVrhodes
p840
I118
sV@foxnewssunday
p841
I814
sVsituation
p842
I124
sVfood stamps
p843
I517
sVvoice
p844
I345
sV#middleclass
p845
I859
sVmistake
p846
I346
sVtax cut package
p847
I782
sV#givingtuesday
p848
I125
sVfamil
p849
I1124
sVvoters
p850
I497
sVhttps://en.wikipedia.org/wiki/United_States
p851
I210
sVneed
p852
I556
sVmarching band
p853
I747
sVhttps://en.wikipedia.org/wiki/Iowa
p854
I952
sVreports
p855
I9
sVhttps://en.wikipedia.org/wiki/Wichita,_Kansas
p856
I651
sVcrash
p857
I1157
sVtax giveaways
p858
I1191
sVhttps://en.wikipedia.org/wiki/Hurricane_Maria
p859
I211
sVrt @johnjharwood
p860
I652
sVmilitary families month
p861
I1023
sVeducation
p862
I594
sV@uscapitol
p863
I499
sVprovisions
p864
I1105
sVhttps://en.wikipedia.org/wiki/The_Thing_(1982_film)
p865
I212
sVthings
p866
I61
sVhttps://en.wikipedia.org/wiki/United_States_Senate_Committee_on_Foreign_Relations
p867
I815
sVadministration
p868
I869
sVhttps://t.
p869
I816
sVsame
p870
I737
sVcheck
p871
I962
sVmember
p872
I1192
sVrules
p873
I431
sVunity
p874
I1193
sVparts
p875
I577
sVspeech
p876
I738
sVarguments
p877
I739
sVemployers
p878
I725
sV@epa
p879
I347
sVparty
p880
I578
sVterrorism
p881
I285
sVsolution
p882
I601
sVhttps://en.wikipedia.org/wiki/United_States_Senate_Committee_on_the_Budget
p883
I127
sVoil
p884
I741
sVhttps://en.wikipedia.org/wiki/Barack_Obama
p885
I425
sV@facethenation
p886
I1106
sVhttps://en.wikipedia.org/wiki/Tax_Policy_Center
p887
I663
sVreporting
p888
I870
sVtown hall
p889
I621
sVholidays
p890
I1108
sVdirector
p891
I185
sVrt @senthadcochran
p892
I128
sVlevels
p893
I214
sVuses
p894
I501
sVfavorites
p895
I426
sV@msnbc
p896
I381
sV@senbobcasey
p897
I62
sVhttps://en.wikipedia.org/wiki/Hurricane_Sandy
p898
I215
sVopportunity
p899
I654
sVtune
p900
I63
sV@rnicholasburns
p901
I872
sV@ghtcoalition
p902
I1099
sVhttps://en.wikipedia.org/wiki/Christmas_tree
p903
I633
sVprograms
p904
I656
sVstate sponsor
p905
I286
sVmarkup
p906
I742
sVcongrats
p907
I853
sVanalysis
p908
I1110
sVperson
p909
I216
sVhttps://en.wikipedia.org/wiki/Chris_Van_Hollen
p910
I817
sVservices
p911
I801
sVrelief
p912
I192
sValaskans
p913
I427
sVsmall business
p914
I818
sVy
p915
I819
sVclaims
p916
I657
sVmissile program
p917
I673
sV@tppf
p918
I457
sVinvestments
p919
I330
sVdrilling
p920
I98
sV#smallbizsat
p921
I64
sVpeace
p922
I1125
sVrt @senatorheitkamp
p923
I394
sVphoto
p924
I348
sVhttps://en.wikipedia.org/wiki/Washington,_D.C.
p925
I745
sVactions
p926
I1026
sVrt @kolr10kozl
p927
I1197
sV#economy
p928
I641
sVthanks
p929
I349
sVquestions
p930
I1111
sVhttps://en.wikipedia.org/wiki/United_States_Senate
p931
I502
sVfacts
p932
I659
sVreality
p933
I364
sVspeed
p934
I428
sV#smallbusinesssaturday
p935
I661
sVarcticrefuge
p936
I1027
sVresponse
p937
I776
sVhttps://en.wikipedia.org/wiki/Canada
p938
I129
sVtownhall
p939
I130
sVtax rate
p940
I581
sV#anwr
p941
I506
sVadvisers
p942
I1112
sVworkers
p943
I1113
sV@senatorrisch
p944
I287
sVsmallbizsat
p945
I504
sV@cfpb
p946
I131
sVmain street
p947
I65
sVparents
p948
I217
sVboard
p949
I350
sVrt @meetthepress
p950
I1058
sVwages
p951
I790
sVhttps://en.wikipedia.org/wiki/New_Hampshire
p952
I430
sVmomentum
p953
I209
sVhttps://en.wikipedia.org/wiki/Kansas
p954
I951
sV@thehill
p955
I66
sVhttps://en.wikipedia.org/wiki/Jerome_Powell
p956
I1162
sVdrug prices
p957
I505
sVvictims
p958
I218
sVhttps://t.co/hqez2fqbbz
p959
I953
sVgovernment
p960
I288
sVread
p961
I213
sVbreaks
p962
I954
sVincome
p963
I748
sVame
p964
I432
sVrhetoric
p965
I616
sVmatters
p966
I821
sVhttps://en.wikipedia.org/wiki/Hawaii
p967
I702
sVwhatever
p968
I491
sV@senatortomudall
p969
I1029
sVjustice
p970
I484
sVworld
p971
I132
sVhttps://en.wikipedia.org/wiki/Presidency_of_Donald_Trump
p972
I684
sV@fema
p973
I67
sVva system
p974
I1114
sVloss
p975
I582
sVranchers
p976
I1094
sV#statepublicoption act
p977
I1115
sVd
p978
I219
sVsuccess
p979
I877
sVgoptaxscam
p980
I878
sVbigotry
p981
I289
sVfishing
p982
I1198
sV@corybooker
p983
I743
sVtaxdebate
p984
I1138
sVindividuals
p985
I220
sVsteps
p986
I68
sVhttps://en.wikipedia.org/wiki/Louisiana
p987
I133
sV@heritage
p988
I1118
sVhealth care bill
p989
I434
sVsecurity
p990
I352
sVrecord
p991
I1181
sVcoal miners
p992
I583
sVreform
p993
I860
sVincome groups
p994
I221
sVamendment
p995
I290
sVright
p996
I69
sVhttps://en.wikipedia.org/wiki/United_States_Department_of_Veterans_Affairs
p997
I955
sVdeal
p998
I665
sVpeople
p999
I70
sVsenate
p1000
I222
sVvillage
p1001
I1096
sVdoctrine
p1002
I669
sV@foxnews
p1003
I1200
sVauthority
p1004
I879
sVmissile test
p1005
I647
sV#cnndebatenight
p1006
I134
sVgrowth
p1007
I1201
sVelection
p1008
I957
sVrespect
p1009
I1030
sVtax bills
p1010
I435
sVhome
p1011
I585
sVhttps://en.wikipedia.org/wiki/Black_Friday_(shopping)
p1012
I666
sVins
p1013
I575
sVrt @sendeanheller
p1014
I855
sVtaxpayers
p1015
I1199
sV@deahq
p1016
I1202
sVsailors
p1017
I662
sVhttps://en.wikipedia.org/wiki/Brian_Schatz
p1018
I749
sVhttps://en.wikipedia.org/wiki/Small_Business_Saturday
p1019
I135
sV@senschumer
p1020
I586
sVrt @mclyburnfcc
p1021
I1210
sVstops
p1022
I1031
sV#opioidcrisis
p1023
I750
sVeverything
p1024
I958
sVdeficit
p1025
I436
sVrt @senatorrisch
p1026
I223
sVhttps://en.wikipedia.org/wiki/Facebook
p1027
I532
sVhttps://en.wikipedia.org/wiki/Hoosier
p1028
I1117
sVt
p1029
I433
sV@senbobcasey @sentoomey
p1030
I206
sVracism
p1031
I1035
sVpower
p1032
I136
sVproblems
p1033
I1127
sVhttps://en.wikipedia.org/wiki/Mazie_Hirono
p1034
I1159
sVagreement
p1035
I224
sVexpansion
p1036
I587
sVgraduates
p1037
I354
sVpressure
p1038
I291
sVstep
p1039
I508
sVleadership
p1040
I137
sVhttps://en.wikipedia.org/wiki/United_States_Virgin_Islands
p1041
I1119
sVeye
p1042
I772
sVbottom line
p1043
I1139
sVr
p1044
I1004
sV@uscapitoltree
p1045
I509
sVspoke
p1046
I71
sVfaith
p1047
I510
sV@windonthewires
p1048
I882
sVanything
p1049
I225
sVstations
p1050
I751
sVcolumn
p1051
I1204
sVentrepreneurs
p1052
I1120
sV@nolabelsorg
p1053
I292
sVcitizens
p1054
I72
sVhttps://en.wikipedia.org/wiki/Nebraska
p1055
I690
sVhttps://en.wikipedia.org/wiki/United_States_Department_of_Health_and_Human_Services
p1056
I691
sVo
p1057
I73
sVhttps://en.wikipedia.org/wiki/Democratic_Party_(United_States)
p1058
I701
sVproposals
p1059
I679
sVstatement
p1060
I791
sVnothing
p1061
I1084
sVhttps://en.wikipedia.org/wiki/United_States_Congress
p1062
I353
sVpockets
p1063
I753
sVtestimony
p1064
I438
sVopioid crisis
p1065
I226
sV#onthisday
p1066
I557
sVhttps://en.wikipedia.org/wiki/Alaska
p1067
I74
sVfarmers
p1068
I1006
sVcountry &amp
p1069
I75
sVrt @gopsenfinance
p1070
I1083
sVways
p1071
I1007
sVdirection
p1072
I1016
sVhttps://en.wikipedia.org/wiki/Federal_Communications_Commission
p1073
I511
sVtravelers
p1074
I1156
sVhttps://en.wikipedia.org/wiki/Jumpstart_Our_Business_Startups_Act
p1075
I1206
sVhttps://en.wikipedia.org/wiki/Michael_Flynn
p1076
I447
sVcommitment
p1077
I293
sV@sensanders
p1078
I1121
sVunited states
p1079
I1033
sVlies
p1080
I668
sVpromise
p1081
I1207
sV#mtpdaily
p1082
I926
sVhttps://en.wikipedia.org/wiki/Ajit_Pai
p1083
I139
sVparties
p1084
I140
sVstrategy
p1085
I1098
sVpentagon
p1086
I512
sV@nfib
p1087
I355
sVhttps://en.wikipedia.org/wiki/Amy_Klobuchar
p1088
I227
sVhttps://en.wikipedia.org/wiki/Colorado
p1089
I228
sVdecisions
p1090
I1048
sVpres trump
p1091
I141
sV@senbooker
p1092
I733
sVarea
p1093
I439
sVgetcovered
p1094
I885
sVhousing
p1095
I294
sVservice members
p1096
I142
sVlegislation
p1097
I356
sVhttps://en.wikipedia.org/wiki/Ukraine
p1098
I960
sVfight
p1099
I357
sVcommunities
p1100
I1068
sVthreat
p1101
I1073
sVmuch
p1102
I55
sVway
p1103
I358
sVhouse
p1104
I784
sVcall
p1105
I606
sVwar
p1106
I359
sV#smallbusinesses
p1107
I670
sVtaxreform bill
p1108
I514
sV#gradtaxwalkout
p1109
I229
sVfacebook live town hall
p1110
I515
sVtax system
p1111
I1036
sVhttps://en.wikipedia.org/wiki/Republican_Party_(United_States)
p1112
I360
sVservicemembers
p1113
I516
sV#shopsmall
p1114
I144
sVoversight
p1115
I461
sVrt @
p1116
I1155
sVfailure
p1117
I672
sVdeductions
p1118
I230
sVconstruction
p1119
I296
sV#smallbiz
p1120
I956
sVrt @scavino45: today
p1121
I886
sVsherrod
p1122
I112
sVline
p1123
I231
sV#dreamact
p1124
I232
sVrt @idahopubradio
p1125
I756
sVinfo
p1126
I518
sVspending offsets
p1127
I703
sVhttps://en.wikipedia.org/wiki/Al_Franken
p1128
I233
sVlegacy
p1129
I826
sVconsequences
p1130
I558
sVconference report
p1131
I549
sV@senkamalaharris
p1132
I905
sVhttps://en.wikipedia.org/wiki/Nevada
p1133
I441
sVhttps://en.wikipedia.org/wiki/Vladimir_Putin
p1134
I145
sVrt @lcvoters
p1135
I596
sVdrilling provision
p1136
I827
sVstories
p1137
I837
sV@senmarkey @senbennetco @martinheinrich
p1138
I828
sVcake
p1139
I1186
sVnominations
p1140
I297
sVpiece
p1141
I591
sVhttps://en.wikipedia.org/wiki/Rex_Tillerson
p1142
I757
sVmtg
p1143
I361
sVmetoo congress act
p1144
I572
sVpromises
p1145
I362
sVvideos
p1146
I759
sVint
p1147
I298
sVreservations
p1148
I592
sVak
p1149
I146
sV@60minutes
p1150
I888
sVinfluence
p1151
I234
sVal
p1152
I147
sVhttps://en.wikipedia.org/wiki/Tim_Kaine
p1153
I195
sVhttps://en.wikipedia.org/wiki/CNN
p1154
I593
sVhealth care
p1155
I148
sVgrad students
p1156
I299
sV@varneyco
p1157
I149
sVlifetime
p1158
I760
sV@ajitpaifcc
p1159
I442
sV@tperkins
p1160
I519
sVnegotiations
p1161
I78
sVregime
p1162
I963
sVlaw enforcement mental health and wellness act
p1163
I443
sVamendments
p1164
I761
sVfloor
p1165
I79
sVhttps://en.wikipedia.org/wiki/Ohio
p1166
I933
sVdiscus
p1167
I685
sVne
p1168
I964
sVbipartisanship &amp
p1169
I1038
sVsexual harassment
p1170
I300
sVend
p1171
I909
sV@afphq
p1172
I1017
sVpoliticians
p1173
I520
sVhttps://en.wikipedia.org/wiki/Alaska_Natives
p1174
I931
sVrole
p1175
I80
sVdetails
p1176
I301
sVhttps://en.wikipedia.org/wiki/Arctic_National_Wildlife_Refuge
p1177
I122
sVhttps://en.wikipedia.org/wiki/Americans
p1178
I150
sV@senangusking
p1179
I81
sVhttps://en.wikipedia.org/wiki/Federal_Emergency_Management_Agency
p1180
I762
sV@usdafsa
p1181
I302
sV@senronjohnson
p1182
I889
sV@usnavy
p1183
I82
sVpoor
p1184
I444
sVstat
p1185
I595
sVhttps://en.wikipedia.org/wiki/Roy_Moore
p1186
I890
sV#getcovered
p1187
I1069
sVstudents
p1188
I763
sVbackbone
p1189
I1126
sVhttps://en.wikipedia.org/wiki/Monmouth_University
p1190
I445
sVupdate
p1191
I365
sVgifts
p1192
I151
sVvsos
p1193
I892
sVceos
p1194
I1213
sV@smallbizcmte
p1195
I152
sVrepeal
p1196
I303
sVfriends
p1197
I1209
sVsides
p1198
I143
sVinspiration
p1199
I304
sV@inguardsman
p1200
I1040
sVhttps://en.wikipedia.org/wiki/Susan_Collins
p1201
I1163
sVrt @governortomwolf
p1202
I764
sVcalls
p1203
I1041
sVrt @afphq
p1204
I983
sVgoptaxbill
p1205
I366
sVrt @senaterpc
p1206
I966
sV@budgetgop
p1207
I765
sVhttps://en.wikipedia.org/wiki/Bonn
p1208
I1170
sV@stevedaines
p1209
I1136
sVpremiums
p1210
I676
sVhttps://en.wikipedia.org/wiki/index.html?curid=5028080
p1211
I1061
sVvolumes
p1212
I1215
sV@senatorbaldwin
p1213
I1194
sVtax burden
p1214
I235
sVdecision
p1215
I823
sVprofits
p1216
I677
s.